target datalayout = "e-m:e-p270:32:32-p271:32:32-p272:64:64-i64:64-i128:128-f80:128-n8:16:32:64-S128"
target triple = "x86_64-pc-linux-gnu"

%struct.OSSL_TIME = type { i64 }
%struct.ssl_session_st = type { i32, i64, [64 x i8], [512 x i8], i64, [32 x i8], i64, [32 x i8], ptr, ptr, i32, ptr, ptr, ptr, i64, %struct.OSSL_TIME, %struct.OSSL_TIME, %struct.OSSL_TIME, i32, ptr, i64, i32, %struct.crypto_ex_data_st, %struct.anon, ptr, ptr, i64, i32, ptr, ptr, ptr, %struct.CRYPTO_REF_COUNT }
%struct.crypto_ex_data_st = type { ptr, ptr }
%struct.anon = type { ptr, ptr, i64, i64, i32, i32, ptr, i64, i8 }
%struct.CRYPTO_REF_COUNT = type { i32 }
%struct.ssl_st = type { i32, ptr, ptr, ptr, %struct.CRYPTO_REF_COUNT, ptr, %struct.crypto_ex_data_st }
%struct.ssl_connection_st = type { %struct.ssl_st, ptr, i32, ptr, ptr, ptr, i32, ptr, i32, i32, i32, i32, %struct.OSSL_TIME, %struct.OSSL_TIME, %struct.ossl_statem_st, i32, ptr, ptr, i64, i64, i64, %struct.ossl_quic_tls_callbacks_st, ptr, ptr, %struct.anon.0, ptr, ptr, ptr, i32, ptr, %struct.ssl_dane_st, ptr, ptr, ptr, ptr, i32, [64 x i8], [64 x i8], [64 x i8], [64 x i8], [64 x i8], [64 x i8], [64 x i8], [64 x i8], [64 x i8], [64 x i8], [64 x i8], [64 x i8], ptr, [64 x i8], i64, i32, i64, [32 x i8], ptr, ptr, ptr, i64, ptr, [32 x i8], i64, i32, ptr, ptr, i32, i32, ptr, ptr, ptr, ptr, ptr, i64, ptr, ptr, i64, i32, i32, i32, i64, i32, i32, i64, i64, i64, %struct.anon.2, ptr, i32, ptr, ptr, ptr, i32, ptr, ptr, ptr, i32, i32, i32, i32, ptr, i64, i32, ptr, %struct.srp_ctx_st, ptr, %struct.record_layer_st, ptr, ptr, ptr, ptr, i64, i32, i32, i32, i64, i64, i64, ptr, ptr, ptr, ptr, ptr, i64, ptr, i64, ptr, i64 }
%struct.ossl_statem_st = type { i32, i32, i32, i32, i32, i32, i32, i32, i32, i32, i32, i32, i32, ptr, ptr, ptr, i8 }
%struct.ossl_quic_tls_callbacks_st = type { ptr, ptr, ptr, ptr, ptr, ptr }
%struct.anon.0 = type { i64, [32 x i8], [32 x i8], ptr, ptr, i32, i32, i32, i32, [2 x i8], i32, i32, i32, i32, %struct.anon.1, [64 x i8], i64, [64 x i8], i64, i32, i32, ptr, i64, ptr, i64, i32, i8, i8, i16, ptr, i16 }
%struct.anon.1 = type { [128 x i8], i64, [128 x i8], i64, i64, i32, ptr, ptr, [4 x ptr], [4 x i16], i64, i32, ptr, i64, ptr, i64, ptr, ptr, ptr, i32, i64, ptr, i32, ptr, i64, ptr, i64, ptr, i64, ptr, ptr, ptr, ptr, i64, i64, ptr, ptr, i32, i32, i32, i32 }
%struct.ssl_dane_st = type { ptr, ptr, ptr, ptr, ptr, i32, i32, i32, i64 }
%struct.anon.2 = type { [29 x i8], ptr, ptr, ptr, i32, ptr, i16, i32, %struct.anon.3, i32, i32, i64, ptr, i64, ptr, i64, ptr, i64, ptr, i64, ptr, i64, ptr, ptr, ptr, ptr, ptr, ptr, ptr, i64, ptr, i64, i32, i32, i32, i32, ptr, i64, i32, i8, i32, [4 x i32], i32, i8, i8, i8, i8 }
%struct.anon.3 = type { ptr, ptr, ptr, i64 }
%struct.srp_ctx_st = type { ptr, ptr, ptr, ptr, ptr, ptr, ptr, ptr, ptr, ptr, ptr, ptr, ptr, ptr, i32, i64 }
%struct.record_layer_st = type { ptr, ptr, ptr, ptr, ptr, ptr, ptr, ptr, i64, i32, i64, [4 x i8], i64, i64, i8, ptr, i32, ptr, ptr, ptr, i64, i64, i64, i64, [32 x %struct.tls_record_st] }
%struct.tls_record_st = type { ptr, i32, i8, ptr, ptr, i64, i64, i16, [8 x i8] }
%struct.ssl_ctx_st = type { ptr, ptr, ptr, ptr, ptr, ptr, ptr, i64, ptr, ptr, i32, %struct.OSSL_TIME, ptr, ptr, ptr, %struct.anon.4, %struct.CRYPTO_REF_COUNT, ptr, ptr, ptr, ptr, ptr, ptr, ptr, ptr, ptr, %struct.crypto_ex_data_st, ptr, ptr, ptr, ptr, ptr, ptr, ptr, i64, i32, i32, i32, i64, ptr, ptr, i32, ptr, ptr, i32, i64, [32 x i8], ptr, ptr, ptr, i32, ptr, ptr, ptr, i64, i64, i64, i64, ptr, ptr, ptr, ptr, ptr, %struct.anon.5, ptr, ptr, ptr, ptr, %struct.srp_ctx_st, %struct.dane_ctx_st, ptr, ptr, ptr, ptr, i32, i32, ptr, ptr, i64, i64, ptr, ptr, ptr, i64, ptr, ptr, i32, ptr, ptr, ptr, [14 x i32], [24 x ptr], [14 x ptr], [14 x i64], i64, ptr, ptr, ptr, i64, i64, ptr, i64, i64, i32, i32, i32, i32, ptr, i64, ptr, i64, i64, ptr, ptr }
%struct.anon.4 = type { i32, i32, i32, i32, i32, i32, i32, i32, i32, i32, i32 }
%struct.anon.5 = type { ptr, ptr, [16 x i8], ptr, ptr, ptr, ptr, ptr, i32, i8, i64, ptr, i64, ptr, i64, ptr, i64, ptr, ptr, i64, ptr, ptr, ptr, i64, ptr, ptr, ptr, ptr, [32 x i8] }
%struct.dane_ctx_st = type { ptr, ptr, i8, i64 }

@.str = private unnamed_addr constant [26 x i8] c"../openssl/ssl/ssl_sess.c\00", align 1
@__func__.ssl_generate_session_id = private unnamed_addr constant [24 x i8] c"ssl_generate_session_id\00", align 1

; Function Attrs: nounwind uwtable
define i32 @ssl_generate_session_id(ptr noundef %0, ptr noundef %1) #0 {
  %3 = alloca i32, align 4
  %4 = alloca ptr, align 8
  %5 = alloca ptr, align 8
  %6 = alloca i32, align 4
  %7 = alloca ptr, align 8
  %8 = alloca ptr, align 8
  %9 = alloca i32, align 4
  store ptr %0, ptr %4, align 8, !tbaa !25
  store ptr %1, ptr %5, align 8, !tbaa !3
  call void @llvm.lifetime.start.p0(i64 4, ptr %6) #9
  call void @llvm.lifetime.start.p0(i64 8, ptr %7) #9
  store ptr @def_generate_session_id, ptr %7, align 8, !tbaa !78
  call void @llvm.lifetime.start.p0(i64 8, ptr %8) #9
  %10 = load ptr, ptr %4, align 8, !tbaa !25
  %11 = getelementptr inbounds nuw %struct.ssl_connection_st, ptr %10, i32 0, i32 0
  store ptr %11, ptr %8, align 8, !tbaa !15
  %12 = load ptr, ptr %4, align 8, !tbaa !25
  %13 = getelementptr inbounds nuw %struct.ssl_connection_st, ptr %12, i32 0, i32 2
  %14 = load i32, ptr %13, align 8, !tbaa !106
  switch i32 %14, label %18 [
    i32 768, label %15
    i32 769, label %15
    i32 770, label %15
    i32 771, label %15
    i32 772, label %15
    i32 256, label %15
    i32 65279, label %15
    i32 65277, label %15
  ]

15:                                               ; preds = %2, %2, %2, %2, %2, %2, %2, %2
  %16 = load ptr, ptr %5, align 8, !tbaa !3
  %17 = getelementptr inbounds nuw %struct.ssl_session_st, ptr %16, i32 0, i32 4
  store i64 32, ptr %17, align 8, !tbaa !103
  br label %20

18:                                               ; preds = %2
  call void @ERR_new()
  call void @ERR_set_debug(ptr noundef @.str, i32 noundef 369, ptr noundef @__func__.ssl_generate_session_id)
  %19 = load ptr, ptr %4, align 8, !tbaa !25
  call void (ptr, i32, i32, ptr, ...) @ossl_statem_fatal(ptr noundef %19, i32 noundef 80, i32 noundef 259, ptr noundef null)
  store i32 0, ptr %3, align 4
  store i32 1, ptr %9, align 4
  br label %134

20:                                               ; preds = %15
  %21 = load ptr, ptr %4, align 8, !tbaa !25
  %22 = getelementptr inbounds nuw %struct.ssl_connection_st, ptr %21, i32 0, i32 84
  %23 = getelementptr inbounds nuw %struct.anon.2, ptr %22, i32 0, i32 9
  %24 = load i32, ptr %23, align 8, !tbaa !107
  %25 = icmp ne i32 %24, 0
  br i1 %25, label %26, label %29

26:                                               ; preds = %20
  %27 = load ptr, ptr %5, align 8, !tbaa !3
  %28 = getelementptr inbounds nuw %struct.ssl_session_st, ptr %27, i32 0, i32 4
  store i64 0, ptr %28, align 8, !tbaa !103
  store i32 1, ptr %3, align 4
  store i32 1, ptr %9, align 4
  br label %134

29:                                               ; preds = %20
  %30 = load ptr, ptr %4, align 8, !tbaa !25
  %31 = getelementptr inbounds nuw %struct.ssl_connection_st, ptr %30, i32 0, i32 0
  %32 = getelementptr inbounds nuw %struct.ssl_st, ptr %31, i32 0, i32 5
  %33 = load ptr, ptr %32, align 8, !tbaa !108
  %34 = call i32 @CRYPTO_THREAD_read_lock(ptr noundef %33)
  %35 = icmp ne i32 %34, 0
  br i1 %35, label %37, label %36

36:                                               ; preds = %29
  store i32 0, ptr %3, align 4
  store i32 1, ptr %9, align 4
  br label %134

37:                                               ; preds = %29
  %38 = load ptr, ptr %4, align 8, !tbaa !25
  %39 = getelementptr inbounds nuw %struct.ssl_connection_st, ptr %38, i32 0, i32 91
  %40 = load ptr, ptr %39, align 8, !tbaa !109
  %41 = getelementptr inbounds nuw %struct.ssl_ctx_st, ptr %40, i32 0, i32 72
  %42 = load ptr, ptr %41, align 8, !tbaa !110
  %43 = call i32 @CRYPTO_THREAD_read_lock(ptr noundef %42)
  %44 = icmp ne i32 %43, 0
  br i1 %44, label %51, label %45

45:                                               ; preds = %37
  %46 = load ptr, ptr %8, align 8, !tbaa !15
  %47 = getelementptr inbounds nuw %struct.ssl_st, ptr %46, i32 0, i32 5
  %48 = load ptr, ptr %47, align 8, !tbaa !77
  %49 = call i32 @CRYPTO_THREAD_unlock(ptr noundef %48)
  call void @ERR_new()
  call void @ERR_set_debug(ptr noundef @.str, i32 noundef 399, ptr noundef @__func__.ssl_generate_session_id)
  %50 = load ptr, ptr %4, align 8, !tbaa !25
  call void (ptr, i32, i32, ptr, ...) @ossl_statem_fatal(ptr noundef %50, i32 noundef 80, i32 noundef 277, ptr noundef null)
  store i32 0, ptr %3, align 4
  store i32 1, ptr %9, align 4
  br label %134

51:                                               ; preds = %37
  %52 = load ptr, ptr %4, align 8, !tbaa !25
  %53 = getelementptr inbounds nuw %struct.ssl_connection_st, ptr %52, i32 0, i32 58
  %54 = load ptr, ptr %53, align 8, !tbaa !125
  %55 = icmp ne ptr %54, null
  br i1 %55, label %56, label %60

56:                                               ; preds = %51
  %57 = load ptr, ptr %4, align 8, !tbaa !25
  %58 = getelementptr inbounds nuw %struct.ssl_connection_st, ptr %57, i32 0, i32 58
  %59 = load ptr, ptr %58, align 8, !tbaa !125
  store ptr %59, ptr %7, align 8, !tbaa !78
  br label %74

60:                                               ; preds = %51
  %61 = load ptr, ptr %4, align 8, !tbaa !25
  %62 = getelementptr inbounds nuw %struct.ssl_connection_st, ptr %61, i32 0, i32 91
  %63 = load ptr, ptr %62, align 8, !tbaa !109
  %64 = getelementptr inbounds nuw %struct.ssl_ctx_st, ptr %63, i32 0, i32 48
  %65 = load ptr, ptr %64, align 8, !tbaa !126
  %66 = icmp ne ptr %65, null
  br i1 %66, label %67, label %73

67:                                               ; preds = %60
  %68 = load ptr, ptr %4, align 8, !tbaa !25
  %69 = getelementptr inbounds nuw %struct.ssl_connection_st, ptr %68, i32 0, i32 91
  %70 = load ptr, ptr %69, align 8, !tbaa !109
  %71 = getelementptr inbounds nuw %struct.ssl_ctx_st, ptr %70, i32 0, i32 48
  %72 = load ptr, ptr %71, align 8, !tbaa !126
  store ptr %72, ptr %7, align 8, !tbaa !78
  br label %73

73:                                               ; preds = %67, %60
  br label %74

74:                                               ; preds = %73, %56
  %75 = load ptr, ptr %4, align 8, !tbaa !25
  %76 = getelementptr inbounds nuw %struct.ssl_connection_st, ptr %75, i32 0, i32 91
  %77 = load ptr, ptr %76, align 8, !tbaa !109
  %78 = getelementptr inbounds nuw %struct.ssl_ctx_st, ptr %77, i32 0, i32 72
  %79 = load ptr, ptr %78, align 8, !tbaa !110
  %80 = call i32 @CRYPTO_THREAD_unlock(ptr noundef %79)
  %81 = load ptr, ptr %8, align 8, !tbaa !15
  %82 = getelementptr inbounds nuw %struct.ssl_st, ptr %81, i32 0, i32 5
  %83 = load ptr, ptr %82, align 8, !tbaa !77
  %84 = call i32 @CRYPTO_THREAD_unlock(ptr noundef %83)
  %85 = load ptr, ptr %5, align 8, !tbaa !3
  %86 = getelementptr inbounds nuw %struct.ssl_session_st, ptr %85, i32 0, i32 5
  %87 = getelementptr inbounds [32 x i8], ptr %86, i64 0, i64 0
  %88 = load ptr, ptr %5, align 8, !tbaa !3
  %89 = getelementptr inbounds nuw %struct.ssl_session_st, ptr %88, i32 0, i32 4
  %90 = load i64, ptr %89, align 8, !tbaa !103
  call void @llvm.memset.p0.i64(ptr align 8 %87, i8 0, i64 %90, i1 false)
  %91 = load ptr, ptr %5, align 8, !tbaa !3
  %92 = getelementptr inbounds nuw %struct.ssl_session_st, ptr %91, i32 0, i32 4
  %93 = load i64, ptr %92, align 8, !tbaa !103
  %94 = trunc i64 %93 to i32
  store i32 %94, ptr %6, align 4, !tbaa !11
  %95 = load ptr, ptr %7, align 8, !tbaa !78
  %96 = load ptr, ptr %8, align 8, !tbaa !15
  %97 = load ptr, ptr %5, align 8, !tbaa !3
  %98 = getelementptr inbounds nuw %struct.ssl_session_st, ptr %97, i32 0, i32 5
  %99 = getelementptr inbounds [32 x i8], ptr %98, i64 0, i64 0
  %100 = call i32 %95(ptr noundef %96, ptr noundef %99, ptr noundef %6)
  %101 = icmp ne i32 %100, 0
  br i1 %101, label %104, label %102

102:                                              ; preds = %74
  call void @ERR_new()
  call void @ERR_set_debug(ptr noundef @.str, i32 noundef 414, ptr noundef @__func__.ssl_generate_session_id)
  %103 = load ptr, ptr %4, align 8, !tbaa !25
  call void (ptr, i32, i32, ptr, ...) @ossl_statem_fatal(ptr noundef %103, i32 noundef 80, i32 noundef 301, ptr noundef null)
  store i32 0, ptr %3, align 4
  store i32 1, ptr %9, align 4
  br label %134

104:                                              ; preds = %74
  %105 = load i32, ptr %6, align 4, !tbaa !11
  %106 = icmp eq i32 %105, 0
  br i1 %106, label %114, label %107

107:                                              ; preds = %104
  %108 = load i32, ptr %6, align 4, !tbaa !11
  %109 = zext i32 %108 to i64
  %110 = load ptr, ptr %5, align 8, !tbaa !3
  %111 = getelementptr inbounds nuw %struct.ssl_session_st, ptr %110, i32 0, i32 4
  %112 = load i64, ptr %111, align 8, !tbaa !103
  %113 = icmp ugt i64 %109, %112
  br i1 %113, label %114, label %116

114:                                              ; preds = %107, %104
  call void @ERR_new()
  call void @ERR_set_debug(ptr noundef @.str, i32 noundef 424, ptr noundef @__func__.ssl_generate_session_id)
  %115 = load ptr, ptr %4, align 8, !tbaa !25
  call void (ptr, i32, i32, ptr, ...) @ossl_statem_fatal(ptr noundef %115, i32 noundef 80, i32 noundef 303, ptr noundef null)
  store i32 0, ptr %3, align 4
  store i32 1, ptr %9, align 4
  br label %134

116:                                              ; preds = %107
  %117 = load i32, ptr %6, align 4, !tbaa !11
  %118 = zext i32 %117 to i64
  %119 = load ptr, ptr %5, align 8, !tbaa !3
  %120 = getelementptr inbounds nuw %struct.ssl_session_st, ptr %119, i32 0, i32 4
  store i64 %118, ptr %120, align 8, !tbaa !103
  %121 = load ptr, ptr %8, align 8, !tbaa !15
  %122 = load ptr, ptr %5, align 8, !tbaa !3
  %123 = getelementptr inbounds nuw %struct.ssl_session_st, ptr %122, i32 0, i32 5
  %124 = getelementptr inbounds [32 x i8], ptr %123, i64 0, i64 0
  %125 = load ptr, ptr %5, align 8, !tbaa !3
  %126 = getelementptr inbounds nuw %struct.ssl_session_st, ptr %125, i32 0, i32 4
  %127 = load i64, ptr %126, align 8, !tbaa !103
  %128 = trunc i64 %127 to i32
  %129 = call i32 @SSL_has_matching_session_id(ptr noundef %121, ptr noundef %124, i32 noundef %128)
  %130 = icmp ne i32 %129, 0
  br i1 %130, label %131, label %133

131:                                              ; preds = %116
  call void @ERR_new()
  call void @ERR_set_debug(ptr noundef @.str, i32 noundef 431, ptr noundef @__func__.ssl_generate_session_id)
  %132 = load ptr, ptr %4, align 8, !tbaa !25
  call void (ptr, i32, i32, ptr, ...) @ossl_statem_fatal(ptr noundef %132, i32 noundef 80, i32 noundef 302, ptr noundef null)
  store i32 0, ptr %3, align 4
  store i32 1, ptr %9, align 4
  br label %134

133:                                              ; preds = %116
  store i32 1, ptr %3, align 4
  store i32 1, ptr %9, align 4
  br label %134

134:                                              ; preds = %133, %131, %114, %102, %45, %36, %26, %18
  call void @llvm.lifetime.end.p0(i64 8, ptr %8) #9
  call void @llvm.lifetime.end.p0(i64 8, ptr %7) #9
  call void @llvm.lifetime.end.p0(i64 4, ptr %6) #9
  %135 = load i32, ptr %3, align 4
  ret i32 %135
}