; Function Attrs: nounwind uwtable
define range(i32 0, 2) i32 @ssl_generate_session_id(ptr noundef %0, ptr noundef %1) local_unnamed_addr #3 {
  %3 = alloca i32, align 4
  call void @llvm.lifetime.start.p0(i64 4, ptr nonnull %3) #11
  %4 = getelementptr inbounds nuw i8, ptr %0, i64 72
  %5 = load i32, ptr %4, align 8, !tbaa !95
  switch i32 %5, label %10 [
    i32 768, label %6
    i32 769, label %6
    i32 770, label %6
    i32 771, label %6
    i32 772, label %6
    i32 256, label %6
    i32 65279, label %6
    i32 65277, label %6
  ]

6:                                                ; preds = %2, %2, %2, %2, %2, %2, %2, %2
  %7 = getelementptr inbounds nuw i8, ptr %1, i64 592
  store i64 32, ptr %7, align 8, !tbaa !91
  %8 = getelementptr inbounds nuw i8, ptr %0, i64 2656
  %9 = load i32, ptr %8, align 8, !tbaa !96
  %.not = icmp eq i32 %9, 0
  br i1 %.not, label %12, label %11

10:                                               ; preds = %2
  tail call void @ERR_new() #11
  tail call void @ERR_set_debug(ptr noundef nonnull @.str, i32 noundef 369, ptr noundef nonnull @__func__.ssl_generate_session_id) #11
  tail call void (ptr, i32, i32, ptr, ...) @ossl_statem_fatal(ptr noundef nonnull %0, i32 noundef 80, i32 noundef 259, ptr noundef null) #11
  br label %53

11:                                               ; preds = %6
  store i64 0, ptr %7, align 8, !tbaa !91
  br label %53

12:                                               ; preds = %6
  %13 = getelementptr inbounds nuw i8, ptr %0, i64 40
  %14 = load ptr, ptr %13, align 8, !tbaa !97
  %15 = tail call i32 @CRYPTO_THREAD_read_lock(ptr noundef %14) #11
  %.not35 = icmp eq i32 %15, 0
  br i1 %.not35, label %53, label %16

16:                                               ; preds = %12
  %17 = getelementptr inbounds nuw i8, ptr %0, i64 2952
  %18 = load ptr, ptr %17, align 8, !tbaa !98
  %19 = getelementptr inbounds nuw i8, ptr %18, i64 1024
  %20 = load ptr, ptr %19, align 8, !tbaa !99
  %21 = tail call i32 @CRYPTO_THREAD_read_lock(ptr noundef %20) #11
  %.not36 = icmp eq i32 %21, 0
  br i1 %.not36, label %22, label %25

22:                                               ; preds = %16
  %23 = load ptr, ptr %13, align 8, !tbaa !71
  %24 = tail call i32 @CRYPTO_THREAD_unlock(ptr noundef %23) #11
  tail call void @ERR_new() #11
  tail call void @ERR_set_debug(ptr noundef nonnull @.str, i32 noundef 399, ptr noundef nonnull @__func__.ssl_generate_session_id) #11
  tail call void (ptr, i32, i32, ptr, ...) @ossl_statem_fatal(ptr noundef nonnull %0, i32 noundef 80, i32 noundef 277, ptr noundef null) #11
  br label %53

25:                                               ; preds = %16
  %26 = getelementptr inbounds nuw i8, ptr %0, i64 2336
  %27 = load ptr, ptr %26, align 8, !tbaa !114
  %.not37 = icmp eq ptr %27, null
  %.pre = load ptr, ptr %17, align 8, !tbaa !98
  br i1 %.not37, label %28, label %31

28:                                               ; preds = %25
  %29 = getelementptr inbounds nuw i8, ptr %.pre, i64 440
  %30 = load ptr, ptr %29, align 8, !tbaa !115
  %.not38 = icmp eq ptr %30, null
  %spec.select = select i1 %.not38, ptr @def_generate_session_id, ptr %30
  br label %31

31:                                               ; preds = %28, %25
  %.030 = phi ptr [ %27, %25 ], [ %spec.select, %28 ]
  %32 = getelementptr inbounds nuw i8, ptr %.pre, i64 1024
  %33 = load ptr, ptr %32, align 8, !tbaa !99
  %34 = tail call i32 @CRYPTO_THREAD_unlock(ptr noundef %33) #11
  %35 = load ptr, ptr %13, align 8, !tbaa !71
  %36 = tail call i32 @CRYPTO_THREAD_unlock(ptr noundef %35) #11
  %37 = getelementptr inbounds nuw i8, ptr %1, i64 600
  %38 = load i64, ptr %7, align 8, !tbaa !91
  tail call void @llvm.memset.p0.i64(ptr nonnull align 8 %37, i8 0, i64 %38, i1 false)
  %39 = trunc i64 %38 to i32
  store i32 %39, ptr %3, align 4, !tbaa !92
  %40 = call i32 %.030(ptr noundef nonnull %0, ptr noundef nonnull %37, ptr noundef nonnull %3) #11
  %.not39 = icmp eq i32 %40, 0
  br i1 %.not39, label %41, label %42

41:                                               ; preds = %31
  call void @ERR_new() #11
  call void @ERR_set_debug(ptr noundef nonnull @.str, i32 noundef 414, ptr noundef nonnull @__func__.ssl_generate_session_id) #11
  call void (ptr, i32, i32, ptr, ...) @ossl_statem_fatal(ptr noundef nonnull %0, i32 noundef 80, i32 noundef 301, ptr noundef null) #11
  br label %53

42:                                               ; preds = %31
  %43 = load i32, ptr %3, align 4, !tbaa !92
  %44 = icmp eq i32 %43, 0
  br i1 %44, label %49, label %45

45:                                               ; preds = %42
  %46 = zext i32 %43 to i64
  %47 = load i64, ptr %7, align 8, !tbaa !91
  %48 = icmp ult i64 %47, %46
  br i1 %48, label %49, label %50

49:                                               ; preds = %45, %42
  call void @ERR_new() #11
  call void @ERR_set_debug(ptr noundef nonnull @.str, i32 noundef 424, ptr noundef nonnull @__func__.ssl_generate_session_id) #11
  call void (ptr, i32, i32, ptr, ...) @ossl_statem_fatal(ptr noundef nonnull %0, i32 noundef 80, i32 noundef 303, ptr noundef null) #11
  br label %53

50:                                               ; preds = %45
  store i64 %46, ptr %7, align 8, !tbaa !91
  %51 = call i32 @SSL_has_matching_session_id(ptr noundef nonnull %0, ptr noundef nonnull %37, i32 noundef %43) #11
  %.not40 = icmp eq i32 %51, 0
  br i1 %.not40, label %53, label %52

52:                                               ; preds = %50
  call void @ERR_new() #11
  call void @ERR_set_debug(ptr noundef nonnull @.str, i32 noundef 431, ptr noundef nonnull @__func__.ssl_generate_session_id) #11
  call void (ptr, i32, i32, ptr, ...) @ossl_statem_fatal(ptr noundef nonnull %0, i32 noundef 80, i32 noundef 302, ptr noundef null) #11
  br label %53

53:                                               ; preds = %50, %12, %52, %49, %41, %22, %11, %10
  %.0 = phi i32 [ 0, %10 ], [ 1, %11 ], [ 0, %49 ], [ 0, %52 ], [ 0, %41 ], [ 0, %22 ], [ 0, %12 ], [ 1, %50 ]
  call void @llvm.lifetime.end.p0(i64 4, ptr nonnull %3) #11
  ret i32 %.0
}